; Function Attrs: inlinehint mustprogress nounwind willreturn uwtable
define internal fastcc void @Vec_WrdPushTwo(ptr noundef nonnull captures(none) %0, i64 noundef %1, i64 noundef range(i64 -2147483648, 2147483648) %2) unnamed_addr #13 {
  %4 = getelementptr inbounds nuw i8, ptr %0, i64 4
  %5 = load i32, ptr %4, align 4, !tbaa !61
  %6 = load i32, ptr %0, align 8, !tbaa !63
  %7 = icmp eq i32 %5, %6
  br i1 %7, label %8, label %.Vec_WrdGrow.exit10_crit_edge.i

.Vec_WrdGrow.exit10_crit_edge.i:                  ; preds = %3
  %.phi.trans.insert.i = getelementptr inbounds nuw i8, ptr %0, i64 8
  %.pre.i = load ptr, ptr %.phi.trans.insert.i, align 8, !tbaa !64
  br label %Vec_WrdPush.exit

8:                                                ; preds = %3
  %9 = icmp slt i32 %5, 16
  br i1 %9, label %10, label %18

10:                                               ; preds = %8
  %11 = getelementptr inbounds nuw i8, ptr %0, i64 8
  %12 = load ptr, ptr %11, align 8, !tbaa !64
  %.not9.i.i = icmp eq ptr %12, null
  br i1 %.not9.i.i, label %15, label %13

13:                                               ; preds = %10
  %14 = tail call dereferenceable_or_null(128) ptr @realloc(ptr noundef nonnull %12, i64 noundef 128) #23
  br label %Vec_WrdGrow.exit.i

15:                                               ; preds = %10
  %16 = tail call noalias dereferenceable_or_null(128) ptr @malloc(i64 noundef 128) #22
  br label %Vec_WrdGrow.exit.i

Vec_WrdGrow.exit.i:                               ; preds = %15, %13
  %17 = phi ptr [ %14, %13 ], [ %16, %15 ]
  store ptr %17, ptr %11, align 8, !tbaa !64
  store i32 16, ptr %0, align 8, !tbaa !63
  br label %Vec_WrdPush.exit

18:                                               ; preds = %8
  %19 = shl nuw nsw i32 %5, 1
  %20 = getelementptr inbounds nuw i8, ptr %0, i64 8
  %21 = load ptr, ptr %20, align 8, !tbaa !64
  %.not9.i9.i = icmp eq ptr %21, null
  %22 = zext nneg i32 %19 to i64
  %23 = shl nuw nsw i64 %22, 3
  br i1 %.not9.i9.i, label %26, label %24

24:                                               ; preds = %18
  %25 = tail call ptr @realloc(ptr noundef nonnull %21, i64 noundef %23) #23
  br label %28

26:                                               ; preds = %18
  %27 = tail call noalias ptr @malloc(i64 noundef %23) #22
  br label %28

28:                                               ; preds = %26, %24
  %29 = phi ptr [ %25, %24 ], [ %27, %26 ]
  store ptr %29, ptr %20, align 8, !tbaa !64
  store i32 %19, ptr %0, align 8, !tbaa !63
  br label %Vec_WrdPush.exit

Vec_WrdPush.exit:                                 ; preds = %.Vec_WrdGrow.exit10_crit_edge.i, %Vec_WrdGrow.exit.i, %28
  %30 = phi i32 [ %6, %.Vec_WrdGrow.exit10_crit_edge.i ], [ %19, %28 ], [ 16, %Vec_WrdGrow.exit.i ]
  %31 = phi ptr [ %.pre.i, %.Vec_WrdGrow.exit10_crit_edge.i ], [ %29, %28 ], [ %17, %Vec_WrdGrow.exit.i ]
  %32 = load i32, ptr %4, align 4, !tbaa !61
  %33 = add nsw i32 %32, 1
  store i32 %33, ptr %4, align 4, !tbaa !61
  %34 = sext i32 %32 to i64
  %35 = getelementptr inbounds i64, ptr %31, i64 %34
  store i64 %1, ptr %35, align 8, !tbaa !16
  %36 = icmp eq i32 %33, %30
  br i1 %36, label %37, label %Vec_WrdPush.exit9

37:                                               ; preds = %Vec_WrdPush.exit
  %38 = icmp slt i32 %32, 15
  br i1 %38, label %Vec_WrdGrow.exit.i8, label %41

Vec_WrdGrow.exit.i8:                              ; preds = %37
  %39 = getelementptr inbounds nuw i8, ptr %0, i64 8
  %40 = tail call dereferenceable_or_null(128) ptr @realloc(ptr noundef nonnull %31, i64 noundef 128) #23
  store ptr %40, ptr %39, align 8, !tbaa !64
  br label %Vec_WrdPush.exit9.sink.split

41:                                               ; preds = %37
  %42 = shl nuw nsw i32 %30, 1
  %43 = getelementptr inbounds nuw i8, ptr %0, i64 8
  %44 = zext nneg i32 %42 to i64
  %45 = shl nuw nsw i64 %44, 3
  %46 = tail call ptr @realloc(ptr noundef nonnull %31, i64 noundef %45) #23
  store ptr %46, ptr %43, align 8, !tbaa !64
  br label %Vec_WrdPush.exit9.sink.split

Vec_WrdPush.exit9.sink.split:                     ; preds = %41, %Vec_WrdGrow.exit.i8
  %.sink = phi i32 [ 16, %Vec_WrdGrow.exit.i8 ], [ %42, %41 ]
  %.ph = phi ptr [ %40, %Vec_WrdGrow.exit.i8 ], [ %46, %41 ]
  store i32 %.sink, ptr %0, align 8, !tbaa !63
  br label %Vec_WrdPush.exit9

Vec_WrdPush.exit9:                                ; preds = %Vec_WrdPush.exit9.sink.split, %Vec_WrdPush.exit
  %47 = phi ptr [ %31, %Vec_WrdPush.exit ], [ %.ph, %Vec_WrdPush.exit9.sink.split ]
  %48 = load i32, ptr %4, align 4, !tbaa !61
  %49 = add nsw i32 %48, 1
  store i32 %49, ptr %4, align 4, !tbaa !61
  %50 = sext i32 %48 to i64
  %51 = getelementptr inbounds i64, ptr %47, i64 %50
  store i64 %2, ptr %51, align 8, !tbaa !16
  ret void
}